; Function Attrs: nofree norecurse nosync nounwind memory(readwrite, inaccessiblemem: none) uwtable
define hidden i32 @mbedtls_asn1_write_enum(ptr noundef captures(none) %0, ptr noundef %1, i32 noundef %2) local_unnamed_addr #6 {
  %4 = ptrtoint ptr %1 to i64
  br label %5

5:                                                ; preds = %10, %3
  %.017.i = phi i32 [ %2, %3 ], [ %14, %10 ]
  %.0.i = phi i64 [ 0, %3 ], [ %11, %10 ]
  %6 = load ptr, ptr %0, align 8, !tbaa !5
  %7 = ptrtoint ptr %6 to i64
  %8 = sub i64 %7, %4
  %9 = icmp slt i64 %8, 1
  br i1 %9, label %asn1_write_tagged_int.exit, label %10

10:                                               ; preds = %5
  %11 = add i64 %.0.i, 1
  %12 = trunc i32 %.017.i to i8
  %13 = getelementptr inbounds i8, ptr %6, i64 -1
  store ptr %13, ptr %0, align 8, !tbaa !5
  store i8 %12, ptr %13, align 1, !tbaa !10
  %14 = ashr i32 %.017.i, 8
  %15 = icmp sgt i32 %14, 0
  br i1 %15, label %5, label %16, !llvm.loop !16

16:                                               ; preds = %10
  %17 = load ptr, ptr %0, align 8, !tbaa !5
  %18 = load i8, ptr %17, align 1, !tbaa !10
  %.not.i = icmp sgt i8 %18, -1
  br i1 %.not.i, label %26, label %19

19:                                               ; preds = %16
  %20 = ptrtoint ptr %17 to i64
  %21 = sub i64 %20, %4
  %22 = icmp slt i64 %21, 1
  br i1 %22, label %asn1_write_tagged_int.exit, label %23

23:                                               ; preds = %19
  %24 = getelementptr inbounds i8, ptr %17, i64 -1
  store ptr %24, ptr %0, align 8, !tbaa !5
  store i8 0, ptr %24, align 1, !tbaa !10
  %25 = add i64 %.0.i, 2
  br label %26

26:                                               ; preds = %23, %16
  %.1.i = phi i64 [ %25, %23 ], [ %11, %16 ]
  %27 = icmp ugt i64 %.1.i, 4294967295
  br i1 %27, label %asn1_write_tagged_int.exit, label %28

28:                                               ; preds = %26
  %29 = icmp samesign ugt i64 %.1.i, 127
  br i1 %29, label %.preheader23.i.i.i, label %.loopexit.i.i.i

.preheader23.i.i.i:                               ; preds = %28, %.preheader23.i.i.i
  %.025.i.i.i = phi i64 [ %31, %.preheader23.i.i.i ], [ %.1.i, %28 ]
  %.124.i.i.i = phi i32 [ %30, %.preheader23.i.i.i ], [ 1, %28 ]
  %30 = add nuw nsw i32 %.124.i.i.i, 1
  %31 = lshr i64 %.025.i.i.i, 8
  %.not.i.i.i = icmp ult i64 %.025.i.i.i, 256
  br i1 %.not.i.i.i, label %.loopexit.i.i.i, label %.preheader23.i.i.i, !llvm.loop !3

.loopexit.i.i.i:                                  ; preds = %.preheader23.i.i.i, %28
  %.017.i.i.i = phi i32 [ 1, %28 ], [ %30, %.preheader23.i.i.i ]
  %32 = zext nneg i32 %.017.i.i.i to i64
  %33 = load ptr, ptr %0, align 8, !tbaa !5
  %34 = ptrtoint ptr %33 to i64
  %35 = sub i64 %34, %4
  %36 = icmp slt i64 %35, %32
  br i1 %36, label %asn1_write_tagged_int.exit, label %.preheader.i.i.i

.preheader.i.i.i:                                 ; preds = %.loopexit.i.i.i, %.preheader.i.i.i
  %.018.i.i.i = phi i64 [ %40, %.preheader.i.i.i ], [ %.1.i, %.loopexit.i.i.i ]
  %37 = trunc i64 %.018.i.i.i to i8
  %38 = load ptr, ptr %0, align 8, !tbaa !5
  %39 = getelementptr inbounds i8, ptr %38, i64 -1
  store ptr %39, ptr %0, align 8, !tbaa !5
  store i8 %37, ptr %39, align 1, !tbaa !10
  %40 = lshr i64 %.018.i.i.i, 8
  %.not22.i.i.i = icmp ult i64 %.018.i.i.i, 256
  br i1 %.not22.i.i.i, label %41, label %.preheader.i.i.i, !llvm.loop !11

41:                                               ; preds = %.preheader.i.i.i
  %42 = icmp samesign ugt i32 %.017.i.i.i, 1
  br i1 %42, label %43, label %mbedtls_asn1_write_len.exit.i.i

43:                                               ; preds = %41
  %44 = trunc i32 %.017.i.i.i to i8
  %45 = add i8 %44, 127
  %46 = load ptr, ptr %0, align 8, !tbaa !5
  %47 = getelementptr inbounds i8, ptr %46, i64 -1
  store ptr %47, ptr %0, align 8, !tbaa !5
  store i8 %45, ptr %47, align 1, !tbaa !10
  br label %mbedtls_asn1_write_len.exit.i.i

mbedtls_asn1_write_len.exit.i.i:                  ; preds = %43, %41
  %48 = load ptr, ptr %0, align 8, !tbaa !5
  %49 = ptrtoint ptr %48 to i64
  %50 = sub i64 %49, %4
  %51 = icmp slt i64 %50, 1
  br i1 %51, label %asn1_write_tagged_int.exit, label %52

52:                                               ; preds = %mbedtls_asn1_write_len.exit.i.i
  %53 = getelementptr inbounds i8, ptr %48, i64 -1
  store ptr %53, ptr %0, align 8, !tbaa !5
  store i8 10, ptr %53, align 1, !tbaa !10
  %54 = trunc nuw i64 %.1.i to i32
  %55 = add i32 %54, 1
  %56 = add i32 %55, %.017.i.i.i
  br label %asn1_write_tagged_int.exit

asn1_write_tagged_int.exit:                       ; preds = %5, %19, %26, %.loopexit.i.i.i, %mbedtls_asn1_write_len.exit.i.i, %52
  %.016.i = phi i32 [ -108, %19 ], [ %56, %52 ], [ -108, %.loopexit.i.i.i ], [ -100, %26 ], [ -108, %mbedtls_asn1_write_len.exit.i.i ], [ -108, %5 ]
  ret i32 %.016.i
}